target datalayout = "e-m:e-p270:32:32-p271:32:32-p272:64:64-i64:64-i128:128-f80:128-n8:16:32:64-S128"
target triple = "x86_64-pc-linux-gnu"

%"class.icu_77::CurrencyUnit" = type { %"class.icu_77::MeasureUnit.base", [4 x i16], [4 x i8] }
%"class.icu_77::MeasureUnit.base" = type <{ %"class.icu_77::UObject", ptr, i16, i8 }>
%"class.icu_77::UObject" = type { ptr }

@.str = private unnamed_addr constant [9 x i8] c"currency\00", align 1

; Function Attrs: mustprogress uwtable
define void @_ZN6icu_7712CurrencyUnitC2ERKNS_11MeasureUnitER10UErrorCode(ptr noundef nonnull align 8 dereferenceable(28) %0, ptr noundef nonnull align 8 dereferenceable(19) %1, ptr noundef nonnull align 4 dereferenceable(4) %2) unnamed_addr #1 align 2 personality ptr @__gxx_personality_v0 {
  %4 = alloca ptr, align 8
  %5 = alloca ptr, align 8
  %6 = alloca ptr, align 8
  %7 = alloca ptr, align 8
  %8 = alloca i32, align 4
  store ptr %0, ptr %4, align 8, !tbaa !23
  store ptr %1, ptr %5, align 8, !tbaa !44
  store ptr %2, ptr %6, align 8, !tbaa !22
  %9 = load ptr, ptr %4, align 8
  %10 = load ptr, ptr %5, align 8, !tbaa !44
  call void @_ZN6icu_7711MeasureUnitC2ERKS0_(ptr noundef nonnull align 8 dereferenceable(19) %9, ptr noundef nonnull align 8 dereferenceable(19) %10)
  store ptr getelementptr inbounds inrange(-16, 40) ({ [7 x ptr] }, ptr @_ZTVN6icu_7712CurrencyUnitE, i32 0, i32 0, i32 2), ptr %9, align 8, !tbaa !27
  %11 = invoke noundef ptr @_ZNK6icu_7711MeasureUnit7getTypeEv(ptr noundef nonnull align 8 dereferenceable(19) %9)
          to label %12 unwind label %19

12:                                               ; preds = %3
  %13 = call i32 @strcmp(ptr noundef @.str, ptr noundef %11) #14
  %14 = icmp ne i32 %13, 0
  br i1 %14, label %15, label %23

15:                                               ; preds = %12
  %16 = load ptr, ptr %6, align 8, !tbaa !22
  store i32 1, ptr %16, align 4, !tbaa !15
  %17 = getelementptr inbounds nuw %"class.icu_77::CurrencyUnit", ptr %9, i32 0, i32 1
  %18 = getelementptr inbounds [4 x i16], ptr %17, i64 0, i64 0
  store i16 0, ptr %18, align 4, !tbaa !31
  br label %31

19:                                               ; preds = %25, %23, %3
  %20 = landingpad { ptr, i32 }
          cleanup
  %21 = extractvalue { ptr, i32 } %20, 0
  store ptr %21, ptr %7, align 8
  %22 = extractvalue { ptr, i32 } %20, 1
  store i32 %22, ptr %8, align 4
  call void @_ZN6icu_7711MeasureUnitD2Ev(ptr noundef nonnull align 8 dereferenceable(19) %9) #11
  br label %32

23:                                               ; preds = %12
  %24 = invoke noundef ptr @_ZNK6icu_7711MeasureUnit10getSubtypeEv(ptr noundef nonnull align 8 dereferenceable(19) %9)
          to label %25 unwind label %19

25:                                               ; preds = %23
  %26 = getelementptr inbounds nuw %"class.icu_77::CurrencyUnit", ptr %9, i32 0, i32 1
  %27 = getelementptr inbounds [4 x i16], ptr %26, i64 0, i64 0
  invoke void @u_charsToUChars_77(ptr noundef %24, ptr noundef %27, i32 noundef 4)
          to label %28 unwind label %19

28:                                               ; preds = %25
  %29 = getelementptr inbounds nuw %"class.icu_77::CurrencyUnit", ptr %9, i32 0, i32 1
  %30 = getelementptr inbounds [4 x i16], ptr %29, i64 0, i64 3
  store i16 0, ptr %30, align 2, !tbaa !31
  br label %31

31:                                               ; preds = %28, %15
  ret void

32:                                               ; preds = %19
  %33 = load ptr, ptr %7, align 8
  %34 = load i32, ptr %8, align 4
  %35 = insertvalue { ptr, i32 } poison, ptr %33, 0
  %36 = insertvalue { ptr, i32 } %35, i32 %34, 1
  resume { ptr, i32 } %36
}