; Function Attrs: mustprogress uwtable
define void @_ZN6icu_7712CurrencyUnitC2ERKNS_11MeasureUnitER10UErrorCode(ptr noundef nonnull align 8 dereferenceable(28) %0, ptr noundef nonnull align 8 dereferenceable(19) %1, ptr noundef nonnull writeonly align 4 captures(none) dereferenceable(4) %2) unnamed_addr #1 align 2 personality ptr @__gxx_personality_v0 {
  tail call void @_ZN6icu_7711MeasureUnitC2ERKS0_(ptr noundef nonnull align 8 dereferenceable(19) %0, ptr noundef nonnull align 8 dereferenceable(19) %1)
  store ptr getelementptr inbounds nuw inrange(-16, 40) (i8, ptr @_ZTVN6icu_7712CurrencyUnitE, i64 16), ptr %0, align 8, !tbaa !15
  %4 = invoke noundef ptr @_ZNK6icu_7711MeasureUnit7getTypeEv(ptr noundef nonnull align 8 dereferenceable(19) %0)
          to label %5 unwind label %9

5:                                                ; preds = %3
  %6 = tail call i32 @strcmp(ptr noundef nonnull dereferenceable(9) @.str, ptr noundef nonnull dereferenceable(1) %4) #17
  %.not = icmp eq i32 %6, 0
  br i1 %.not, label %11, label %7

7:                                                ; preds = %5
  store i32 1, ptr %2, align 4, !tbaa !13
  %8 = getelementptr inbounds nuw i8, ptr %0, i64 20
  store i16 0, ptr %8, align 4, !tbaa !20
  br label %17

9:                                                ; preds = %13, %11, %3
  %10 = landingpad { ptr, i32 }
          cleanup
  tail call void @_ZN6icu_7711MeasureUnitD2Ev(ptr noundef nonnull align 8 dereferenceable(19) %0) #14
  resume { ptr, i32 } %10

11:                                               ; preds = %5
  %12 = invoke noundef ptr @_ZNK6icu_7711MeasureUnit10getSubtypeEv(ptr noundef nonnull align 8 dereferenceable(19) %0)
          to label %13 unwind label %9

13:                                               ; preds = %11
  %14 = getelementptr inbounds nuw i8, ptr %0, i64 20
  invoke void @u_charsToUChars_77(ptr noundef %12, ptr noundef nonnull %14, i32 noundef 4)
          to label %15 unwind label %9

15:                                               ; preds = %13
  %16 = getelementptr inbounds nuw i8, ptr %0, i64 26
  store i16 0, ptr %16, align 2, !tbaa !20
  br label %17

17:                                               ; preds = %15, %7
  ret void
}